target datalayout = "e-m:e-p270:32:32-p271:32:32-p272:64:64-i64:64-i128:128-f80:128-n8:16:32:64-S128"
target triple = "x86_64-pc-linux-gnu"

%"class.grpc_core::Combiner" = type { ptr, %"class.grpc_core::MultiProducerSingleConsumerQueue", i64, i64, i8, %struct.grpc_closure_list, %struct.grpc_closure, %struct.gpr_refcount, %"class.std::shared_ptr" }
%"class.grpc_core::MultiProducerSingleConsumerQueue" = type { %union.anon, ptr, %"struct.grpc_core::MultiProducerSingleConsumerQueue::Node" }
%union.anon = type { %"struct.std::atomic", [56 x i8] }
%"struct.std::atomic" = type { %"struct.std::__atomic_base" }
%"struct.std::__atomic_base" = type { ptr }
%"struct.grpc_core::MultiProducerSingleConsumerQueue::Node" = type { %"struct.std::atomic" }
%struct.grpc_closure_list = type { ptr, ptr }
%struct.grpc_closure = type { %union.anon.0, ptr, ptr, %union.anon.1 }
%union.anon.0 = type { ptr }
%union.anon.1 = type { i64 }
%struct.gpr_refcount = type { i64 }
%"class.std::shared_ptr" = type { %"class.std::__shared_ptr" }
%"class.std::__shared_ptr" = type { ptr, %"class.std::__shared_count" }
%"class.std::__shared_count" = type { ptr }
%"struct.grpc_core::ExecCtx::CombinerData" = type { ptr, ptr }
%"class.grpc_core::ExecCtx" = type { ptr, %struct.grpc_closure_list, %"struct.grpc_core::ExecCtx::CombinerData", i64, %"class.std::optional", ptr }
%"class.std::optional" = type { %"struct.std::_Optional_base" }
%"struct.std::_Optional_base" = type { %"struct.std::_Optional_payload" }
%"struct.std::_Optional_payload" = type { %"struct.std::_Optional_payload.base.9", [7 x i8] }
%"struct.std::_Optional_payload.base.9" = type { %"struct.std::_Optional_payload_base.base.8" }
%"struct.std::_Optional_payload_base.base.8" = type <{ %"union.std::_Optional_payload_base<grpc_core::ScopedTimeCache>::_Storage", i8 }>
%"union.std::_Optional_payload_base<grpc_core::ScopedTimeCache>::_Storage" = type { %"class.grpc_core::ScopedTimeCache" }
%"class.grpc_core::ScopedTimeCache" = type { %"class.grpc_core::Timestamp::ScopedSource", %"class.std::optional.3" }
%"class.grpc_core::Timestamp::ScopedSource" = type { %"class.grpc_core::Timestamp::Source", ptr }
%"class.grpc_core::Timestamp::Source" = type { ptr }
%"class.std::optional.3" = type { %"struct.std::_Optional_base.4" }
%"struct.std::_Optional_base.4" = type { %"struct.std::_Optional_payload.6" }
%"struct.std::_Optional_payload.6" = type { %"struct.std::_Optional_payload_base.base", [7 x i8] }
%"struct.std::_Optional_payload_base.base" = type <{ %"union.std::_Optional_payload_base<grpc_core::Timestamp>::_Storage", i8 }>
%"union.std::_Optional_payload_base<grpc_core::Timestamp>::_Storage" = type { %"class.grpc_core::Timestamp" }
%"class.grpc_core::Timestamp" = type { i64 }

@_ZN9grpc_core7ExecCtx9exec_ctx_E = external thread_local global ptr, align 8

; Function Attrs: uwtable
define linkonce_odr hidden noundef ptr @_ZTWN9grpc_core7ExecCtx9exec_ctx_E() #21 comdat {
  %1 = icmp ne ptr @_ZTHN9grpc_core7ExecCtx9exec_ctx_E, null
  br i1 %1, label %2, label %3

2:                                                ; preds = %0
  call void @_ZTHN9grpc_core7ExecCtx9exec_ctx_E()
  br label %3

3:                                                ; preds = %2, %0
  %4 = call align 8 ptr @llvm.threadlocal.address.p0(ptr align 8 @_ZN9grpc_core7ExecCtx9exec_ctx_E)
  ret ptr %4
}

; Function Attrs: mustprogress nounwind uwtable
define linkonce_odr void @_ZN9grpc_core7ExecCtx20SetReadyToFinishFlagEv(ptr noundef nonnull align 8 dereferenceable(96) %0) #10 comdat align 2 {
  %2 = alloca ptr, align 8
  store ptr %0, ptr %2, align 8, !tbaa !54
  %3 = load ptr, ptr %2, align 8
  %4 = getelementptr inbounds nuw %"class.grpc_core::ExecCtx", ptr %3, i32 0, i32 3
  %5 = load i64, ptr %4, align 8, !tbaa !56
  %6 = or i64 %5, 1
  store i64 %6, ptr %4, align 8, !tbaa !56
  ret void
}

; Function Attrs: mustprogress uwtable
define linkonce_odr noundef ptr @_ZN9grpc_core7ExecCtx3GetEv() #4 comdat align 2 {
  %1 = call ptr @_ZTWN9grpc_core7ExecCtx9exec_ctx_E()
  %2 = load ptr, ptr %1, align 8, !tbaa !54
  ret ptr %2
}

; Function Attrs: mustprogress uwtable
define void @_ZN9grpc_core8Combiner12ForceOffloadEv(ptr noundef nonnull align 8 dereferenceable(184) %0) #4 align 2 {
  %2 = alloca ptr, align 8
  %3 = alloca i64, align 8
  store ptr %0, ptr %2, align 8, !tbaa !8
  %4 = load ptr, ptr %2, align 8
  %5 = getelementptr inbounds nuw %"class.grpc_core::Combiner", ptr %4, i32 0, i32 2
  store i64 0, ptr %3, align 8, !tbaa !10
  %6 = load i64, ptr %3, align 8
  store atomic i64 %6, ptr %5 monotonic, align 8
  %7 = call noundef ptr @_ZN9grpc_core7ExecCtx3GetEv()
  call void @_ZN9grpc_core7ExecCtx20SetReadyToFinishFlagEv(ptr noundef nonnull align 8 dereferenceable(96) %7)
  ret void
}