; Function Attrs: uwtable
define void @_ZN9grpc_core8Combiner12ForceOffloadEv(ptr noundef nonnull writeonly align 8 captures(none) dereferenceable(184) %0) local_unnamed_addr #8 align 2 {
  %2 = getelementptr inbounds nuw i8, ptr %0, i64 88
  store atomic i64 0, ptr %2 monotonic, align 8
  %.not.i.i = icmp eq ptr @_ZTHN9grpc_core7ExecCtx9exec_ctx_E, null
  br i1 %.not.i.i, label %_ZN9grpc_core7ExecCtx3GetEv.exit, label %3

3:                                                ; preds = %1
  tail call void @_ZTHN9grpc_core7ExecCtx9exec_ctx_E()
  br label %_ZN9grpc_core7ExecCtx3GetEv.exit

_ZN9grpc_core7ExecCtx3GetEv.exit:                 ; preds = %1, %3
  %4 = tail call noundef align 8 ptr @llvm.threadlocal.address.p0(ptr align 8 @_ZN9grpc_core7ExecCtx9exec_ctx_E)
  %5 = load ptr, ptr %4, align 8, !tbaa !44
  %6 = getelementptr inbounds nuw i8, ptr %5, i64 40
  %7 = load i64, ptr %6, align 8, !tbaa !48
  %8 = or i64 %7, 1
  store i64 %8, ptr %6, align 8, !tbaa !48
  ret void
}